target datalayout = "e-m:e-p270:32:32-p271:32:32-p272:64:64-i64:64-i128:128-f80:128-n8:16:32:64-S128"
target triple = "x86_64-pc-linux-gnu"

%struct.LLSModel = type { [36 x [36 x double]], [32 x [32 x double]], [32 x double], i32, ptr, ptr, [8 x i8] }

; Function Attrs: cold nounwind optsize uwtable
define void @avpriv_init_lls(ptr noundef %0, i32 noundef %1) #3 {
  %3 = alloca ptr, align 8
  %4 = alloca i32, align 4
  store ptr %0, ptr %3, align 8, !tbaa !4
  store i32 %1, ptr %4, align 4, !tbaa !18
  %5 = load ptr, ptr %3, align 8, !tbaa !4
  call void @llvm.memset.p0.i64(ptr align 16 %5, i8 0, i64 18848, i1 false)
  %6 = load i32, ptr %4, align 4, !tbaa !18
  %7 = load ptr, ptr %3, align 8, !tbaa !4
  %8 = getelementptr inbounds nuw %struct.LLSModel, ptr %7, i32 0, i32 3
  store i32 %6, ptr %8, align 16, !tbaa !15
  %9 = load ptr, ptr %3, align 8, !tbaa !4
  %10 = getelementptr inbounds nuw %struct.LLSModel, ptr %9, i32 0, i32 4
  store ptr @update_lls, ptr %10, align 8, !tbaa !30
  %11 = load ptr, ptr %3, align 8, !tbaa !4
  %12 = getelementptr inbounds nuw %struct.LLSModel, ptr %11, i32 0, i32 5
  store ptr @evaluate_lls, ptr %12, align 16, !tbaa !31
  ret void
}