; Function Attrs: cold mustprogress nofree norecurse nosync nounwind optsize willreturn memory(argmem: write) uwtable
define void @avpriv_init_lls(ptr noundef writeonly captures(none) initializes((0, 18848)) %0, i32 noundef %1) local_unnamed_addr #2 {
  tail call void @llvm.memset.p0.i64(ptr noundef nonnull align 16 dereferenceable(18848) %0, i8 0, i64 18848, i1 false)
  %3 = getelementptr inbounds nuw i8, ptr %0, i64 18816
  store i32 %1, ptr %3, align 16, !tbaa !4
  %4 = getelementptr inbounds nuw i8, ptr %0, i64 18824
  store ptr @update_lls, ptr %4, align 8, !tbaa !23
  %5 = getelementptr inbounds nuw i8, ptr %0, i64 18832
  store ptr @evaluate_lls, ptr %5, align 16, !tbaa !24
  ret void
}